Certificate:
    Data:
        Version: 3 (0x2)
        Serial Number:
            49:15:18:d9:c7:21:b7:47:16:0d:f0:6a:0f:1b:37:46
        Signature Algorithm: sha256WithRSAEncryption
        Issuer: CN=RabbitMQ PRODUCTION CA
        Validity
            Not Before: Apr 17 15:24:30 2025 GMT
            Not After : Jul 21 15:24:30 2027 GMT
        Subject: CN=fedora
        Subject Public Key Info:
            Public Key Algorithm: rsaEncryption
                Public-Key: (2048 bit)
                Modulus:
                    00:93:78:0d:eb:0e:6c:54:50:96:6b:c3:80:a4:ad:
                    ae:ca:5b:57:15:06:30:04:47:ec:e2:cf:77:c0:b6:
                    58:76:31:9c:1c:1e:31:40:24:b3:10:c3:b7:38:99:
                    3a:ce:ca:ae:87:48:ed:c0:81:78:df:13:4c:e2:a9:
                    04:34:6a:05:0d:04:3f:38:dd:fe:b5:41:4a:ea:8c:
                    7c:de:5d:67:9a:d6:4c:a1:41:b6:3b:c8:97:dd:f4:
                    ab:39:ac:76:93:e3:41:87:89:d1:18:59:07:be:82:
                    be:a7:2f:40:72:74:3f:ce:73:c8:c7:02:8a:13:c4:
                    e8:0c:03:78:fe:87:f3:ea:8a:f8:d5:a4:75:23:8e:
                    d8:fa:b5:5c:16:72:14:85:33:1f:19:b5:58:3c:7c:
                    fd:1e:81:49:ea:d6:2a:41:9e:4a:82:ed:d1:95:b8:
                    51:09:e9:2e:b9:07:82:1c:96:0c:7f:64:f9:bf:92:
                    10:21:9c:9b:a8:b7:c0:3a:df:c1:61:5b:03:5e:b9:
                    52:3d:16:62:ec:82:3a:77:ea:e1:ce:40:ce:59:2f:
                    4a:f1:7b:5e:f6:b2:06:e3:94:4f:24:13:19:3d:a8:
                    f5:13:c1:99:19:6e:9c:2e:10:21:39:15:e6:a8:b5:
                    44:b6:b5:d0:2d:59:1f:5a:cf:59:36:17:19:85:ac:
                    95:17
                Exponent: 65537 (0x10001)
        X509v3 extensions:
            X509v3 Basic Constraints: critical
                CA:FALSE
            X509v3 Subject Key Identifier:
                0F:4B:63:FF:88:7D:25:C1:71:81:C4:D2:D4:11:AE:01:A1:6C:AF:2D
            X509v3 Authority Key Identifier:
                keyid:3E:FE:1E:79:E6:E2:27:2E:F7:55:A0:CC:2E:8B:76:EF:1B:B4:06:9C
                DirName:/CN=RabbitMQ PRODUCTION CA
                serial:5A:8D:E6:52:82:F5:8B:69:A6:3D:8B:0D:B1:59:A1:09:74:98:48:E0
            X509v3 Extended Key Usage:
                TLS Web Client Authentication
            X509v3 Key Usage:
                Digital Signature
    Signature Algorithm: sha256WithRSAEncryption
    Signature Value:
        68:06:3e:09:34:fd:32:ab:80:ff:3b:19:76:8f:5a:80:fa:f4:
        32:6b:e9:c4:21:85:da:4e:0d:8b:d2:c9:43:6a:d0:9e:1c:71:
        76:f5:6d:dc:46:be:f9:f6:91:c6:78:6b:3b:10:69:16:08:49:
        06:8e:cc:a3:5f:08:15:1e:8c:b7:26:7a:cb:8a:81:21:12:30:
        13:74:fe:e0:5c:df:1d:9c:1a:d9:44:62:20:33:eb:ce:70:ad:
        95:5b:39:cc:e8:5e:be:96:e2:02:a5:54:4d:1e:9d:18:d1:3d:
        f1:87:9f:d7:00:0e:f9:91:55:1f:d1:e3:5e:2a:42:a6:39:47:
        6d:d8:1d:23:68:38:0a:5d:87:c3:7f:a0:6a:83:a4:c1:7b:a6:
        da:72:aa:3c:a5:e7:6c:17:01:51:54:75:06:74:63:6d:c6:fa:
        fb:86:e4:0e:13:07:ee:bb:83:07:39:44:b4:e7:04:00:44:a6:
        25:8f:07:f7:20:2f:e2:32:18:6f:4a:ec:84:65:b8:6e:db:53:
        b4:f7:d4:3a:23:de:0c:89:d1:dd:a1:37:0f:00:9f:47:4e:97:
        1d:75:e0:44:4b:7c:20:37:6f:0d:45:d4:4f:af:67:2f:55:16:
        1b:aa:d6:8d:b6:ac:06:b6:bc:cd:bc:f6:5b:1b:3d:ff:ba:b6:
        68:75:95:02
-----BEGIN CERTIFICATE-----
MIIDbTCCAlWgAwIBAgIQSRUY2ccht0cWDfBqDxs3RjANBgkqhkiG9w0BAQsFADAh
MR8wHQYDVQQDDBZSYWJiaXRNUSBQUk9EVUNUSU9OIENBMB4XDTI1MDQxNzE1MjQz
MFoXDTI3MDcyMTE1MjQzMFowETEPMA0GA1UEAwwGZmVkb3JhMIIBIjANBgkqhkiG
9w0BAQEFAAOCAQ8AMIIBCgKCAQEAk3gN6w5sVFCWa8OApK2uyltXFQYwBEfs4s93
wLZYdjGcHB4xQCSzEMO3OJk6zsquh0jtwIF43xNM4qkENGoFDQQ/ON3+tUFK6ox8
3l1nmtZMoUG2O8iX3fSrOax2k+NBh4nRGFkHvoK+py9AcnQ/znPIxwKKE8ToDAN4
/ofz6or41aR1I47Y+rVcFnIUhTMfGbVYPHz9HoFJ6tYqQZ5Kgu3RlbhRCekuuQeC
HJYMf2T5v5IQIZybqLfAOt/BYVsDXrlSPRZi7II6d+rhzkDOWS9K8Xte9rIG45RP
JBMZPaj1E8GZGW6cLhAhORXmqLVEtrXQLVkfWs9ZNhcZhayVFwIDAQABo4GwMIGt
MAwGA1UdEwEB/wQCMAAwHQYDVR0OBBYEFA9LY/+IfSXBcYHE0tQRrgGhbK8tMFwG
A1UdIwRVMFOAFD7+Hnnm4icu91WgzC6Ldu8btAacoSWkIzAhMR8wHQYDVQQDDBZS
YWJiaXRNUSBQUk9EVUNUSU9OIENBghRajeZSgvWLaaY9iw2xWaEJdJhI4DATBgNV
HSUEDDAKBggrBgEFBQcDAjALBgNVHQ8EBAMCB4AwDQYJKoZIhvcNAQELBQADggEB
AGgGPgk0/TKrgP87GXaPWoD69DJr6cQhhdpODYvSyUNq0J4ccXb1bdxGvvn2kcZ4
azsQaRYISQaOzKNfCBUejLcmesuKgSESMBN0/uBc3x2cGtlEYiAz685wrZVbOczo
Xr6W4gKlVE0enRjRPfGHn9cADvmRVR/R414qQqY5R23YHSNoOApdh8N/oGqDpMF7
ptpyqjyl52wXAVFUdQZ0Y23G+vuG5A4TB+67gwc5RLTnBABEpiWPB/cgL+IyGG9K
7IRluG7bU7T31Doj3gyJ0d2hNw8An0dOlx114ERLfCA3bw1F1E+vZy9VFhuq1o22
rAa2vM289lsbPf+6tmh1lQI=
-----END CERTIFICATE-----
