Certificate:
    Data:
        Version: 3 (0x2)
        Serial Number:
            b9:67:fc:94:d9:e0:30:79:29:e2:fe:99:27:b3:5d:39
        Signature Algorithm: sha256WithRSAEncryption
        Issuer: CN=RabbitMQ STAGING CA
        Validity
            Not Before: Apr  9 09:55:50 2025 GMT
            Not After : Jul 13 09:55:50 2027 GMT
        Subject: CN=fedora.stg
        Subject Public Key Info:
            Public Key Algorithm: rsaEncryption
                Public-Key: (2048 bit)
                Modulus:
                    00:81:63:54:c5:e1:bc:ef:d2:d9:de:8e:57:17:ff:
                    a1:10:e2:80:3b:e4:20:f0:c1:93:cc:56:34:a8:81:
                    27:d9:34:46:76:75:0b:ac:2a:40:ea:85:73:65:75:
                    27:af:46:da:5f:a4:b0:c4:d5:8e:b0:04:bd:78:59:
                    74:fa:ba:62:87:3c:d6:71:9f:13:16:2c:ac:3d:a0:
                    96:39:35:85:1a:c7:3d:bf:c5:72:d9:6c:96:5f:fd:
                    87:5e:6d:e1:4a:ad:f0:50:c8:9b:bc:2f:19:d3:bc:
                    8e:13:b7:66:4f:7c:8f:1c:21:dc:43:a7:91:b6:7e:
                    56:d7:0e:db:33:ba:07:0e:ac:2a:8d:b2:49:55:45:
                    16:3a:94:84:48:56:c8:ad:08:61:51:07:12:7a:dd:
                    00:73:66:d4:9c:04:7d:62:15:e4:fb:de:e1:cc:e5:
                    a6:73:3e:40:ef:72:23:ef:92:58:36:ce:b7:dc:48:
                    35:db:92:dd:1d:9a:f4:7b:1b:2e:22:34:39:55:19:
                    90:aa:6b:38:8e:81:42:13:74:b2:bf:22:2a:21:32:
                    34:8a:d5:62:3d:eb:63:9f:10:a6:6d:f1:8d:93:e3:
                    9e:e1:6f:d9:cd:37:ad:2b:62:0f:92:51:38:b5:9a:
                    37:90:73:e2:f6:0e:82:fc:83:c8:36:f5:46:01:f1:
                    d7:67
                Exponent: 65537 (0x10001)
        X509v3 extensions:
            X509v3 Basic Constraints: critical
                CA:FALSE
            X509v3 Subject Key Identifier:
                6C:CF:76:34:95:83:66:CA:EF:6B:53:D0:5A:F2:02:2D:F0:95:48:46
            X509v3 Authority Key Identifier:
                keyid:17:44:7F:6B:E9:D9:2F:66:9F:68:AB:85:9D:F0:8A:C4:1D:CA:93:A4
                DirName:/CN=RabbitMQ STAGING CA
                serial:26:97:23:C5:0B:C8:D5:AB:59:48:D1:FC:4B:A5:E4:39:49:3E:0F:D6
            X509v3 Extended Key Usage:
                TLS Web Client Authentication
            X509v3 Key Usage:
                Digital Signature
    Signature Algorithm: sha256WithRSAEncryption
    Signature Value:
        3b:79:72:d8:0f:5e:f0:d9:00:e6:5e:40:a7:46:9e:46:3a:79:
        a5:1a:83:74:5a:39:54:d0:ee:f6:80:37:05:9a:4b:18:63:bb:
        65:c5:71:9b:a3:03:05:b5:94:42:ab:de:bf:5e:d2:7b:82:f8:
        de:41:c3:03:33:f2:21:ab:7b:20:f4:52:cd:7b:ac:0a:e3:3a:
        51:07:cf:62:65:dc:15:7d:78:fd:9c:cc:f2:c2:5b:b1:46:46:
        ff:f2:02:9b:d6:1a:77:20:69:b8:0a:f2:bf:b8:14:7c:df:52:
        2d:19:73:89:58:e5:75:7e:55:e0:73:36:50:c8:de:ed:10:23:
        5a:c8:8d:a2:5e:e0:74:c7:38:97:04:b5:8c:c5:8e:b4:08:e3:
        e9:2d:da:ca:7e:4c:ba:3b:53:6c:c5:9d:7c:13:01:73:68:1d:
        c7:b5:48:46:dc:ad:10:77:8d:8c:bd:4d:3c:87:64:47:4a:1d:
        52:21:84:e8:36:d9:c2:e5:40:8f:4f:e5:38:19:39:7a:33:c1:
        c1:e5:71:fe:ac:65:1e:b7:dd:be:10:9b:90:33:a2:49:ed:bb:
        aa:fd:43:3a:8a:27:86:bf:45:b3:b8:bb:b3:5e:36:b6:0e:eb:
        de:cf:6d:1e:23:1f:3f:ea:60:53:a6:3e:70:aa:b8:d2:68:ec:
        49:4b:cc:b8
-----BEGIN CERTIFICATE-----
MIIDbDCCAlSgAwIBAgIRALln/JTZ4DB5KeL+mSezXTkwDQYJKoZIhvcNAQELBQAw
HjEcMBoGA1UEAwwTUmFiYml0TVEgU1RBR0lORyBDQTAeFw0yNTA0MDkwOTU1NTBa
Fw0yNzA3MTMwOTU1NTBaMBUxEzARBgNVBAMMCmZlZG9yYS5zdGcwggEiMA0GCSqG
SIb3DQEBAQUAA4IBDwAwggEKAoIBAQCBY1TF4bzv0tnejlcX/6EQ4oA75CDwwZPM
VjSogSfZNEZ2dQusKkDqhXNldSevRtpfpLDE1Y6wBL14WXT6umKHPNZxnxMWLKw9
oJY5NYUaxz2/xXLZbJZf/YdebeFKrfBQyJu8LxnTvI4Tt2ZPfI8cIdxDp5G2flbX
DtszugcOrCqNsklVRRY6lIRIVsitCGFRBxJ63QBzZtScBH1iFeT73uHM5aZzPkDv
ciPvklg2zrfcSDXbkt0dmvR7Gy4iNDlVGZCqaziOgUITdLK/IiohMjSK1WI962Of
EKZt8Y2T457hb9nNN60rYg+SUTi1mjeQc+L2DoL8g8g29UYB8ddnAgMBAAGjga0w
gaowDAYDVR0TAQH/BAIwADAdBgNVHQ4EFgQUbM92NJWDZsrva1PQWvICLfCVSEYw
WQYDVR0jBFIwUIAUF0R/a+nZL2afaKuFnfCKxB3Kk6ShIqQgMB4xHDAaBgNVBAMM
E1JhYmJpdE1RIFNUQUdJTkcgQ0GCFCaXI8ULyNWrWUjR/Eul5DlJPg/WMBMGA1Ud
JQQMMAoGCCsGAQUFBwMCMAsGA1UdDwQEAwIHgDANBgkqhkiG9w0BAQsFAAOCAQEA
O3ly2A9e8NkA5l5Ap0aeRjp5pRqDdFo5VNDu9oA3BZpLGGO7ZcVxm6MDBbWUQqve
v17Se4L43kHDAzPyIat7IPRSzXusCuM6UQfPYmXcFX14/ZzM8sJbsUZG//ICm9Ya
dyBpuAryv7gUfN9SLRlziVjldX5V4HM2UMje7RAjWsiNol7gdMc4lwS1jMWOtAjj
6S3ayn5MujtTbMWdfBMBc2gdx7VIRtytEHeNjL1NPIdkR0odUiGE6DbZwuVAj0/l
OBk5ejPBweVx/qxlHrfdvhCbkDOiSe27qv1DOoonhr9Fs7i7s142tg7r3s9tHiMf
P+pgU6Y+cKq40mjsSUvMuA==
-----END CERTIFICATE-----
